; Function Attrs: nounwind sspstrong uwtable
define internal i64 @rb_hash_default(i32 noundef %0, ptr noundef readonly captures(none) %1, i64 noundef %2) #0 {
  %4 = alloca [2 x i64], align 16
  %or.cond.not = icmp ult i32 %0, 2
  br i1 %or.cond.not, label %rb_check_arity.exit, label %5

5:                                                ; preds = %3
  tail call void @rb_error_arity(i32 noundef %0, i32 noundef 0, i32 noundef 1) #30
  unreachable

rb_check_arity.exit:                              ; preds = %3
  %6 = inttoptr i64 %2 to ptr
  %7 = getelementptr inbounds nuw i8, ptr %6, i64 16
  %8 = load i64, ptr %7, align 8, !tbaa !56
  %9 = icmp eq i64 %2, 0
  %10 = and i64 %2, 7
  %11 = icmp ne i64 %10, 0
  %12 = or i1 %9, %11
  br i1 %12, label %RB_FL_TEST.exit.thread, label %RB_FL_ABLE.exit.i

RB_FL_ABLE.exit.i:                                ; preds = %rb_check_arity.exit
  %13 = load i64, ptr %6, align 8, !tbaa !11
  %14 = and i64 %13, 31
  %.not.i = icmp eq i64 %14, 27
  %15 = and i64 %13, 16384
  %.not = icmp eq i64 %15, 0
  %or.cond10 = or i1 %.not.i, %.not
  br i1 %or.cond10, label %RB_FL_TEST.exit.thread, label %16

16:                                               ; preds = %RB_FL_ABLE.exit.i
  %17 = icmp eq i32 %0, 0
  br i1 %17, label %RB_FL_TEST.exit.thread, label %18

18:                                               ; preds = %16
  %19 = load i64, ptr %1, align 8, !tbaa !7
  call void @llvm.lifetime.start.p0(i64 16, ptr nonnull %4) #28
  store i64 %2, ptr %4, align 16, !tbaa !7
  %20 = getelementptr inbounds nuw i8, ptr %4, i64 8
  store i64 %19, ptr %20, align 8, !tbaa !7
  %21 = call i64 @rb_proc_call_with_block(i64 noundef %8, i32 noundef 2, ptr noundef nonnull %4, i64 noundef 4) #28
  call void @llvm.lifetime.end.p0(i64 16, ptr nonnull %4) #28
  br label %RB_FL_TEST.exit.thread

RB_FL_TEST.exit.thread:                           ; preds = %RB_FL_ABLE.exit.i, %rb_check_arity.exit, %16, %18
  %.0 = phi i64 [ %21, %18 ], [ 4, %16 ], [ %8, %rb_check_arity.exit ], [ %8, %RB_FL_ABLE.exit.i ]
  ret i64 %.0
}